; Function Attrs: nounwind uwtable
define hidden zeroext i1 @SDL_WindowSupportsGPUPresentMode_REAL(ptr noundef readonly captures(address_is_null) %0, ptr noundef %1, i32 noundef %2) local_unnamed_addr #0 {
  %4 = icmp eq ptr %0, null
  br i1 %4, label %5, label %7

5:                                                ; preds = %3
  %6 = tail call zeroext i1 (ptr, ...) @SDL_SetError_REAL(ptr noundef nonnull @.str.3) #7
  br label %.thread

7:                                                ; preds = %3
  %8 = icmp eq ptr %1, null
  br i1 %8, label %9, label %11

9:                                                ; preds = %7
  %10 = tail call zeroext i1 (ptr, ...) @SDL_SetError_REAL(ptr noundef nonnull @.str.4, ptr noundef nonnull @.str.352) #7
  br label %.thread

11:                                               ; preds = %7
  %12 = getelementptr inbounds nuw i8, ptr %0, i64 684
  %13 = load i8, ptr %12, align 4, !range !5, !noundef !6
  %14 = trunc nuw i8 %13 to i1
  %15 = icmp ugt i32 %2, 2
  %or.cond = and i1 %15, %14
  br i1 %or.cond, label %.preheader, label %18

.preheader:                                       ; preds = %11, %.preheader
  %16 = tail call i32 @SDL_ReportAssertion_REAL(ptr noundef nonnull @SDL_WindowSupportsGPUPresentMode_REAL.sdl_assert_data, ptr noundef nonnull @__func__.SDL_WindowSupportsGPUPresentMode_REAL, ptr noundef nonnull @.str.8, i32 noundef 2843) #7
  switch i32 %16, label %.thread [
    i32 0, label %.preheader
    i32 1, label %17
  ]

17:                                               ; preds = %.preheader
  tail call void @llvm.debugtrap()
  br label %.thread

18:                                               ; preds = %11
  %19 = getelementptr inbounds nuw i8, ptr %0, i64 512
  %20 = load ptr, ptr %19, align 8
  %21 = getelementptr inbounds nuw i8, ptr %0, i64 664
  %22 = load ptr, ptr %21, align 8
  %23 = tail call zeroext i1 %20(ptr noundef %22, ptr noundef nonnull %1, i32 noundef %2) #7
  br label %.thread

.thread:                                          ; preds = %.preheader, %17, %18, %9, %5
  %.013 = phi i1 [ false, %5 ], [ false, %9 ], [ %23, %18 ], [ false, %17 ], [ false, %.preheader ]
  ret i1 %.013
}